target datalayout = "e-m:e-p270:32:32-p271:32:32-p272:64:64-i64:64-i128:128-f80:128-n8:16:32:64-S128"
target triple = "x86_64-pc-linux-gnu"

%"class.rocksdb::CompactForTieringCollector" = type <{ %"class.rocksdb::TablePropertiesCollector", i64, double, i64, i64, i8, i8, i8, [5 x i8] }>
%"class.rocksdb::TablePropertiesCollector" = type { ptr }

; Function Attrs: inlinehint mustprogress nounwind uwtable
define linkonce_odr void @_ZN7rocksdb24TablePropertiesCollectorC2Ev(ptr noundef nonnull align 8 dereferenceable(8) %0) unnamed_addr #1 comdat align 2 {
  %2 = alloca ptr, align 8
  store ptr %0, ptr %2, align 8, !tbaa !38
  %3 = load ptr, ptr %2, align 8
  store ptr getelementptr inbounds inrange(-16, 80) ({ [12 x ptr] }, ptr @_ZTVN7rocksdb24TablePropertiesCollectorE, i32 0, i32 0, i32 2), ptr %3, align 8, !tbaa !25
  ret void
}

; Function Attrs: mustprogress nounwind uwtable
define void @_ZN7rocksdb26CompactForTieringCollectorC2Emdb(ptr noundef nonnull align 8 dereferenceable(43) %0, i64 noundef %1, double noundef %2, i1 noundef zeroext %3) unnamed_addr #3 align 2 {
  %5 = alloca ptr, align 8
  %6 = alloca i64, align 8
  %7 = alloca double, align 8
  %8 = alloca i8, align 1
  store ptr %0, ptr %5, align 8, !tbaa !19
  store i64 %1, ptr %6, align 8, !tbaa !4
  store double %2, ptr %7, align 8, !tbaa !21
  %9 = zext i1 %3 to i8
  store i8 %9, ptr %8, align 1, !tbaa !23
  %10 = load ptr, ptr %5, align 8
  call void @_ZN7rocksdb24TablePropertiesCollectorC2Ev(ptr noundef nonnull align 8 dereferenceable(8) %10) #5
  store ptr getelementptr inbounds inrange(-16, 80) ({ [12 x ptr] }, ptr @_ZTVN7rocksdb26CompactForTieringCollectorE, i32 0, i32 0, i32 2), ptr %10, align 8, !tbaa !25
  %11 = getelementptr inbounds nuw %"class.rocksdb::CompactForTieringCollector", ptr %10, i32 0, i32 1
  %12 = load i64, ptr %6, align 8, !tbaa !4
  store i64 %12, ptr %11, align 8, !tbaa !27
  %13 = getelementptr inbounds nuw %"class.rocksdb::CompactForTieringCollector", ptr %10, i32 0, i32 2
  %14 = load double, ptr %7, align 8, !tbaa !21
  store double %14, ptr %13, align 8, !tbaa !30
  %15 = getelementptr inbounds nuw %"class.rocksdb::CompactForTieringCollector", ptr %10, i32 0, i32 3
  store i64 0, ptr %15, align 8, !tbaa !31
  %16 = getelementptr inbounds nuw %"class.rocksdb::CompactForTieringCollector", ptr %10, i32 0, i32 4
  store i64 0, ptr %16, align 8, !tbaa !32
  %17 = getelementptr inbounds nuw %"class.rocksdb::CompactForTieringCollector", ptr %10, i32 0, i32 5
  store i8 0, ptr %17, align 8, !tbaa !33
  %18 = getelementptr inbounds nuw %"class.rocksdb::CompactForTieringCollector", ptr %10, i32 0, i32 6
  store i8 0, ptr %18, align 1, !tbaa !34
  %19 = getelementptr inbounds nuw %"class.rocksdb::CompactForTieringCollector", ptr %10, i32 0, i32 7
  %20 = load i8, ptr %8, align 1, !tbaa !23, !range !35, !noundef !36
  %21 = trunc i8 %20 to i1
  %22 = zext i1 %21 to i8
  store i8 %22, ptr %19, align 2, !tbaa !37
  ret void
}