; Function Attrs: mustprogress nofree norecurse nosync nounwind willreturn memory(argmem: write) uwtable
define void @_ZN7rocksdb26CompactForTieringCollectorC2Emdb(ptr noundef nonnull writeonly align 8 captures(none) dereferenceable(43) initializes((0, 43)) %0, i64 noundef %1, double noundef %2, i1 noundef zeroext %3) unnamed_addr #3 align 2 {
  %5 = zext i1 %3 to i8
  store ptr getelementptr inbounds nuw inrange(-16, 80) (i8, ptr @_ZTVN7rocksdb26CompactForTieringCollectorE, i64 16), ptr %0, align 8, !tbaa !4
  %6 = getelementptr inbounds nuw i8, ptr %0, i64 8
  store i64 %1, ptr %6, align 8, !tbaa !7
  %7 = getelementptr inbounds nuw i8, ptr %0, i64 16
  store double %2, ptr %7, align 8, !tbaa !14
  %8 = getelementptr inbounds nuw i8, ptr %0, i64 24
  %9 = getelementptr inbounds nuw i8, ptr %0, i64 42
  tail call void @llvm.memset.p0.i64(ptr noundef nonnull align 8 dereferenceable(18) %8, i8 0, i64 18, i1 false)
  store i8 %5, ptr %9, align 2, !tbaa !15
  ret void
}